(dp1
S'failed'
p2
(lp3
sS'source_names'
p4
(lp5
S'functional_tests/briefs/'
p6
aS'functional_tests/quotes'
p7
asS'ids'
p8
(dp9
I1
(S'/Users/david/projects/gallant/functional_tests/briefs/test_brief_answers.py'
S'functional_tests.briefs.test_brief_answers'
p10
S'BriefAnswersTest.test_can_access_answers'
tp11
sI2
(S'/Users/david/projects/gallant/functional_tests/briefs/test_brief_answers.py'
g10
S'BriefAnswersTest.test_post_answers'
tp12
sI3
(S'/Users/david/projects/gallant/functional_tests/briefs/test_brief_answers.py'
g10
S'BriefAnswersTest.test_post_answers_multiselect'
tp13
sI4
(S'/Users/david/projects/gallant/functional_tests/briefs/test_brief_templates.py'
S'functional_tests.briefs.test_brief_templates'
p14
S'BriefTemplatesTest.test_add_brief_from_template'
tp15
sI5
(S'/Users/david/projects/gallant/functional_tests/briefs/test_brief_templates.py'
g14
S'BriefTemplatesTest.test_add_brief_lang_dropdown'
tp16
sI6
(S'/Users/david/projects/gallant/functional_tests/briefs/test_brief_templates.py'
g14
S'BriefTemplatesTest.test_add_brief_template'
tp17
sI7
(S'/Users/david/projects/gallant/functional_tests/briefs/test_brief_templates.py'
g14
S'BriefTemplatesTest.test_add_from_brief'
tp18
sI8
(S'/Users/david/projects/gallant/functional_tests/briefs/test_brief_templates.py'
g14
S'BriefTemplatesTest.test_brief_template_detail'
tp19
sI9
(S'/Users/david/projects/gallant/functional_tests/briefs/test_brief_templates.py'
g14
S'BriefTemplatesTest.test_can_access_brief_template_endpoint'
tp20
sI10
(S'/Users/david/projects/gallant/functional_tests/briefs/test_brief_templates.py'
g14
S'BriefTemplatesTest.test_edit_brief_lang_dropdown'
tp21
sI11
(S'/Users/david/projects/gallant/functional_tests/briefs/test_brief_templates.py'
g14
S'BriefTemplatesTest.test_edit_brief_template'
tp22
sI12
(S'/Users/david/projects/gallant/functional_tests/briefs/test_briefs.py'
S'functional_tests.briefs.test_briefs'
p23
S'BriefsSignedInTest.test_add_brief'
tp24
sI13
(S'/Users/david/projects/gallant/functional_tests/briefs/test_briefs.py'
g23
S'BriefsSignedInTest.test_add_client_brief_multiquestion'
tp25
sI14
(S'/Users/david/projects/gallant/functional_tests/briefs/test_briefs.py'
g23
S'BriefsSignedInTest.test_add_project_brief'
tp26
sI15
(S'/Users/david/projects/gallant/functional_tests/briefs/test_briefs.py'
g23
S'BriefsSignedInTest.test_add_quote_brief'
tp27
sI16
(S'/Users/david/projects/gallant/functional_tests/briefs/test_briefs.py'
g23
S'BriefsSignedInTest.test_can_access_brief_endpoint'
tp28
sI17
(S'/Users/david/projects/gallant/functional_tests/briefs/test_briefs.py'
g23
S'BriefsSignedInTest.test_can_access_briefs'
tp29
sI18
(S'/Users/david/projects/gallant/functional_tests/briefs/test_briefs.py'
g23
S'BriefsSignedInTest.test_can_access_question_endpoint'
tp30
sI19
(S'/Users/david/projects/gallant/functional_tests/briefs/test_briefs.py'
g23
S'BriefsSignedInTest.test_can_access_question_list'
tp31
sI20
(S'/Users/david/projects/gallant/functional_tests/briefs/test_briefs.py'
g23
S'BriefsSignedInTest.test_client_brief_detail'
tp32
sI21
(S'/Users/david/projects/gallant/functional_tests/briefs/test_briefs.py'
g23
S'BriefsSignedInTest.test_edit_client_brief'
tp33
sI22
(S'/Users/david/projects/gallant/functional_tests/briefs/test_briefs.py'
g23
S'BriefsSignedInTest.test_edit_client_brief_question'
tp34
sI23
(S'/Users/david/projects/gallant/functional_tests/briefs/test_briefs.py'
g23
S'BriefsSignedInTest.test_send_answers_link'
tp35
sI24
(S'/Users/david/projects/gallant/functional_tests/briefs/test_briefs.py'
g23
S'BriefsSignedInTest.test_soft_delete_brief'
tp36
sI25
(S'/Users/david/projects/gallant/functional_tests/briefs/test_briefs.py'
g23
S'BriefsSignedInTest.test_soft_delete_brief_template'
tp37
sI26
(S'/Users/david/projects/gallant/functional_tests/quotes/test_quote_templates.py'
S'functional_tests.quotes.test_quote_templates'
p38
S'QuoteTemplatesTest.test_add_from_quote'
tp39
sI27
(S'/Users/david/projects/gallant/functional_tests/quotes/test_quote_templates.py'
g38
S'QuoteTemplatesTest.test_add_quote_from_template'
tp40
sI28
(S'/Users/david/projects/gallant/functional_tests/quotes/test_quote_templates.py'
g38
S'QuoteTemplatesTest.test_add_quote_lang_dropdown'
tp41
sI29
(S'/Users/david/projects/gallant/functional_tests/quotes/test_quote_templates.py'
g38
S'QuoteTemplatesTest.test_add_quote_template'
tp42
sI30
(S'/Users/david/projects/gallant/functional_tests/quotes/test_quote_templates.py'
g38
S'QuoteTemplatesTest.test_can_access_quote_template_endpoint'
tp43
sI31
(S'/Users/david/projects/gallant/functional_tests/quotes/test_quote_templates.py'
g38
S'QuoteTemplatesTest.test_delete_quote_template'
tp44
sI32
(S'/Users/david/projects/gallant/functional_tests/quotes/test_quote_templates.py'
g38
S'QuoteTemplatesTest.test_edit_quote_lang_dropdown'
tp45
sI33
(S'/Users/david/projects/gallant/functional_tests/quotes/test_quote_templates.py'
g38
S'QuoteTemplatesTest.test_quote_template_detail'
tp46
sI34
(S'/Users/david/projects/gallant/functional_tests/quotes/test_quotes.py'
S'functional_tests.quotes.test_quotes'
p47
S'QuotesSignedInTest.test_access_quote_footer'
tp48
sI35
(S'/Users/david/projects/gallant/functional_tests/quotes/test_quotes.py'
g47
S'QuotesSignedInTest.test_access_quote_header'
tp49
sI36
(S'/Users/david/projects/gallant/functional_tests/quotes/test_quotes.py'
g47
S'QuotesSignedInTest.test_access_quote_preview'
tp50
sI37
(S'/Users/david/projects/gallant/functional_tests/quotes/test_quotes.py'
g47
S'QuotesSignedInTest.test_add_quote'
tp51
sI38
(S'/Users/david/projects/gallant/functional_tests/quotes/test_quotes.py'
g47
S'QuotesSignedInTest.test_add_sections'
tp52
sI39
(S'/Users/david/projects/gallant/functional_tests/quotes/test_quotes.py'
g47
S'QuotesSignedInTest.test_add_service'
tp53
sI40
(S'/Users/david/projects/gallant/functional_tests/quotes/test_quotes.py'
g47
S'QuotesSignedInTest.test_add_to_existing_sections'
tp54
sI41
(S'/Users/david/projects/gallant/functional_tests/quotes/test_quotes.py'
g47
S'QuotesSignedInTest.test_can_access_quote_endpoint'
tp55
sI42
(S'/Users/david/projects/gallant/functional_tests/quotes/test_quotes.py'
g47
S'QuotesSignedInTest.test_can_access_quotes'
tp56
sI43
(S'/Users/david/projects/gallant/functional_tests/quotes/test_quotes.py'
g47
S'QuotesSignedInTest.test_delete_quote'
tp57
sI44
(S'/Users/david/projects/gallant/functional_tests/quotes/test_quotes.py'
g47
S'QuotesSignedInTest.test_edit_quote'
tp58
sI45
(S'/Users/david/projects/gallant/functional_tests/quotes/test_quotes.py'
g47
S'QuotesSignedInTest.test_remove_section'
tp59
sI46
(S'/Users/david/projects/gallant/functional_tests/quotes/test_quotes.py'
g47
S'QuotesSignedInTest.test_section_order'
tp60
ss.