(dp1
S'failed'
p2
(lp3
S'2'
asS'source_names'
p4
(lp5
S'functional_tests/quotes/'
p6
aS'23'
p7
asS'ids'
p8
(dp9
I1
(S'/Users/gustavo/gallant/functional_tests/quotes/test_quote_templates.py'
S'functional_tests.quotes.test_quote_templates'
p10
S'QuoteTemplatesTest.test_add_from_quote'
tp11
sI2
(S'/Users/gustavo/gallant/functional_tests/quotes/test_quote_templates.py'
g10
S'QuoteTemplatesTest.test_add_quote_from_template'
tp12
sI3
(S'/Users/gustavo/gallant/functional_tests/quotes/test_quote_templates.py'
g10
S'QuoteTemplatesTest.test_add_quote_lang_dropdown'
tp13
sI4
(S'/Users/gustavo/gallant/functional_tests/quotes/test_quote_templates.py'
g10
S'QuoteTemplatesTest.test_add_quote_template'
tp14
sI5
(S'/Users/gustavo/gallant/functional_tests/quotes/test_quote_templates.py'
g10
S'QuoteTemplatesTest.test_can_access_quote_template_endpoint'
tp15
sI6
(S'/Users/gustavo/gallant/functional_tests/quotes/test_quote_templates.py'
g10
S'QuoteTemplatesTest.test_delete_quote_template'
tp16
sI7
(S'/Users/gustavo/gallant/functional_tests/quotes/test_quote_templates.py'
g10
S'QuoteTemplatesTest.test_edit_quote_lang_dropdown'
tp17
sI8
(S'/Users/gustavo/gallant/functional_tests/quotes/test_quote_templates.py'
g10
S'QuoteTemplatesTest.test_quote_template_detail'
tp18
sI9
(S'/Users/gustavo/gallant/functional_tests/quotes/test_quotes.py'
S'functional_tests.quotes.test_quotes'
p19
S'QuotesSignedInTest.test_access_quote_footer'
tp20
sI10
(S'/Users/gustavo/gallant/functional_tests/quotes/test_quotes.py'
g19
S'QuotesSignedInTest.test_access_quote_header'
tp21
sI11
(S'/Users/gustavo/gallant/functional_tests/quotes/test_quotes.py'
g19
S'QuotesSignedInTest.test_access_quote_preview'
tp22
sI12
(S'/Users/gustavo/gallant/functional_tests/quotes/test_quotes.py'
g19
S'QuotesSignedInTest.test_add_quote'
tp23
sI13
(S'/Users/gustavo/gallant/functional_tests/quotes/test_quotes.py'
g19
S'QuotesSignedInTest.test_add_sections'
tp24
sI14
(S'/Users/gustavo/gallant/functional_tests/quotes/test_quotes.py'
g19
S'QuotesSignedInTest.test_add_service'
tp25
sI15
(S'/Users/gustavo/gallant/functional_tests/quotes/test_quotes.py'
g19
S'QuotesSignedInTest.test_add_to_existing_sections'
tp26
sI16
(S'/Users/gustavo/gallant/functional_tests/quotes/test_quotes.py'
g19
S'QuotesSignedInTest.test_can_access_quote_endpoint'
tp27
sI17
(S'/Users/gustavo/gallant/functional_tests/quotes/test_quotes.py'
g19
S'QuotesSignedInTest.test_can_access_quotes'
tp28
sI18
(S'/Users/gustavo/gallant/functional_tests/quotes/test_quotes.py'
g19
S'QuotesSignedInTest.test_delete_quote'
tp29
sI19
(S'/Users/gustavo/gallant/functional_tests/quotes/test_quotes.py'
g19
S'QuotesSignedInTest.test_edit_quote'
tp30
sI20
(S'/Users/gustavo/gallant/functional_tests/quotes/test_quotes.py'
g19
S'QuotesSignedInTest.test_email_quote'
tp31
sI21
(S'/Users/gustavo/gallant/functional_tests/quotes/test_quotes.py'
g19
S'QuotesSignedInTest.test_remove_section'
tp32
sI22
(S'/Users/gustavo/gallant/functional_tests/quotes/test_quotes.py'
g19
S'QuotesSignedInTest.test_section_order'
tp33
ss.